; Function Attrs: mustprogress nounwind willreturn uwtable
define dso_local void @_ZN3igl6opengl10ViewerData12clear_pointsEv(ptr noundef nonnull align 8 captures(none) dereferenceable(1488) %0) local_unnamed_addr #7 align 2 {
  %2 = getelementptr inbounds nuw i8, ptr %0, i64 416
  %3 = load i64, ptr %2, align 8, !tbaa !80
  %4 = getelementptr inbounds nuw i8, ptr %0, i64 424
  %5 = load i64, ptr %4, align 8, !tbaa !79
  %6 = mul nsw i64 %5, %3
  %.not.i = icmp eq i64 %6, 0
  br i1 %.not.i, label %_ZN5Eigen12DenseStorageIdLin1ELin1ELin1ELi0EE6resizeElll.exit, label %7

7:                                                ; preds = %1
  %8 = getelementptr inbounds nuw i8, ptr %0, i64 408
  %9 = load ptr, ptr %8, align 8, !tbaa !61
  tail call void @free(ptr noundef %9) #26
  store ptr null, ptr %8, align 8, !tbaa !61
  br label %_ZN5Eigen12DenseStorageIdLin1ELin1ELin1ELi0EE6resizeElll.exit

_ZN5Eigen12DenseStorageIdLin1ELin1ELin1ELi0EE6resizeElll.exit: ; preds = %1, %7
  store i64 0, ptr %2, align 8, !tbaa !80
  store i64 6, ptr %4, align 8, !tbaa !79
  ret void
}